; Function Attrs: mustprogress uwtable
define void @_ZN8facebook5velox8encoding6Base649encodeUrlB5cxx11EN5folly5RangeIPKcEE(ptr noalias sret(%"class.std::__cxx11::basic_string") align 8 %agg.result, ptr %text.coerce0, ptr %text.coerce1) local_unnamed_addr #2 align 2 {
entry:
  %text = alloca %"class.folly::Range", align 8
  store ptr %text.coerce0, ptr %text, align 8
  %0 = getelementptr inbounds i8, ptr %text, i64 8
  store ptr %text.coerce1, ptr %0, align 8
  call void @_ZN8facebook5velox8encoding6Base6410encodeImplIN5folly5RangeIPKcEEEENSt7__cxx1112basic_stringIcSt11char_traitsIcESaIcEEERKT_RKSt5arrayIcLm64EEb(ptr sret(%"class.std::__cxx11::basic_string") align 8 %agg.result, ptr noundef nonnull align 8 dereferenceable(16) %text, ptr noundef nonnull align 1 dereferenceable(64) @_ZN8facebook5velox8encodingL17kBase64UrlCharsetE, i1 noundef zeroext false)
  ret void
}